target datalayout = "e-m:e-p270:32:32-p271:32:32-p272:64:64-i64:64-i128:128-f80:128-n8:16:32:64-S128"
target triple = "x86_64-pc-linux-gnu"

%class.RawRead = type { %class.Array, ptr, i64, i64, ptr }
%class.Array = type { ptr, i64, i64, i64 }

; Function Attrs: inlinehint mustprogress nounwind uwtable
define linkonce_odr noundef nonnull align 1 dereferenceable(1) ptr @_ZNK5ArrayIhEixEm(ptr noundef nonnull align 8 dereferenceable(32) %0, i64 noundef %1) #3 comdat align 2 {
  %3 = alloca ptr, align 8
  %4 = alloca i64, align 8
  store ptr %0, ptr %3, align 8, !tbaa !15
  store i64 %1, ptr %4, align 8, !tbaa !23
  %5 = load ptr, ptr %3, align 8
  %6 = getelementptr inbounds nuw %class.Array, ptr %5, i32 0, i32 0
  %7 = load ptr, ptr %6, align 8, !tbaa !20
  %8 = load i64, ptr %4, align 8, !tbaa !23
  %9 = getelementptr inbounds nuw i8, ptr %7, i64 %8
  ret ptr %9
}

; Function Attrs: mustprogress uwtable
define noundef i32 @_ZN7RawRead8GetVSizeEm(ptr noundef nonnull align 8 dereferenceable(64) %0, i64 noundef %1) #0 align 2 {
  %3 = alloca i32, align 4
  %4 = alloca ptr, align 8
  %5 = alloca i64, align 8
  %6 = alloca i64, align 8
  %7 = alloca i32, align 4
  store ptr %0, ptr %4, align 8, !tbaa !3
  store i64 %1, ptr %5, align 8, !tbaa !23
  %8 = load ptr, ptr %4, align 8
  call void @llvm.lifetime.start.p0(i64 8, ptr %6) #9
  %9 = load i64, ptr %5, align 8, !tbaa !23
  store i64 %9, ptr %6, align 8, !tbaa !23
  br label %10

10:                                               ; preds = %31, %2
  %11 = load i64, ptr %6, align 8, !tbaa !23
  %12 = getelementptr inbounds nuw %class.RawRead, ptr %8, i32 0, i32 2
  %13 = load i64, ptr %12, align 8, !tbaa !18
  %14 = icmp ult i64 %11, %13
  br i1 %14, label %16, label %15

15:                                               ; preds = %10
  store i32 2, ptr %7, align 4
  br label %34

16:                                               ; preds = %10
  %17 = getelementptr inbounds nuw %class.RawRead, ptr %8, i32 0, i32 0
  %18 = load i64, ptr %6, align 8, !tbaa !23
  %19 = call noundef nonnull align 1 dereferenceable(1) ptr @_ZNK5ArrayIhEixEm(ptr noundef nonnull align 8 dereferenceable(32) %17, i64 noundef %18)
  %20 = load i8, ptr %19, align 1, !tbaa !29
  %21 = zext i8 %20 to i32
  %22 = and i32 %21, 128
  %23 = icmp eq i32 %22, 0
  br i1 %23, label %24, label %30

24:                                               ; preds = %16
  %25 = load i64, ptr %6, align 8, !tbaa !23
  %26 = load i64, ptr %5, align 8, !tbaa !23
  %27 = sub i64 %25, %26
  %28 = add i64 %27, 1
  %29 = trunc i64 %28 to i32
  store i32 %29, ptr %3, align 4
  store i32 1, ptr %7, align 4
  br label %34

30:                                               ; preds = %16
  br label %31

31:                                               ; preds = %30
  %32 = load i64, ptr %6, align 8, !tbaa !23
  %33 = add i64 %32, 1
  store i64 %33, ptr %6, align 8, !tbaa !23
  br label %10, !llvm.loop !36

34:                                               ; preds = %24, %15
  call void @llvm.lifetime.end.p0(i64 8, ptr %6) #9
  %35 = load i32, ptr %7, align 4
  switch i32 %35, label %39 [
    i32 2, label %36
    i32 1, label %37
  ]

36:                                               ; preds = %34
  store i32 0, ptr %3, align 4
  br label %37

37:                                               ; preds = %36, %34
  %38 = load i32, ptr %3, align 4
  ret i32 %38

39:                                               ; preds = %34
  unreachable
}