; Function Attrs: mustprogress nofree norecurse nosync nounwind willreturn memory(read, inaccessiblemem: none) uwtable
define noundef i32 @_ZN7RawRead8GetVSizeEm(ptr noundef nonnull readonly align 8 captures(none) dereferenceable(64) %0, i64 noundef %1) local_unnamed_addr #6 align 2 {
  %3 = getelementptr inbounds nuw i8, ptr %0, i64 40
  %4 = load i64, ptr %3, align 8, !tbaa !15
  %.not11 = icmp ult i64 %1, %4
  br i1 %.not11, label %.lr.ph, label %.loopexit

.lr.ph:                                           ; preds = %2
  %5 = load ptr, ptr %0, align 8, !tbaa !17
  br label %6

6:                                                ; preds = %.lr.ph, %14
  %.0812 = phi i64 [ %1, %.lr.ph ], [ %15, %14 ]
  %7 = getelementptr inbounds nuw i8, ptr %5, i64 %.0812
  %8 = load i8, ptr %7, align 1, !tbaa !22
  %9 = icmp sgt i8 %8, -1
  br i1 %9, label %10, label %14

10:                                               ; preds = %6
  %11 = sub i64 %.0812, %1
  %12 = trunc i64 %11 to i32
  %13 = add i32 %12, 1
  br label %.loopexit

14:                                               ; preds = %6
  %15 = add i64 %.0812, 1
  %exitcond.not = icmp eq i64 %15, %4
  br i1 %exitcond.not, label %.loopexit, label %6, !llvm.loop !25

.loopexit:                                        ; preds = %14, %2, %10
  %spec.select = phi i32 [ %13, %10 ], [ 0, %2 ], [ 0, %14 ]
  ret i32 %spec.select
}